; Function Attrs: nounwind uwtable
define internal fastcc i32 @check_bad_attrsz(ptr noundef nonnull readonly captures(none) %0, i32 noundef %1, i32 noundef range(i32 1, 5) %2, ptr noundef %3, ptr noundef nonnull %4, ptr noundef nonnull writeonly captures(none) initializes((0, 4)) %5) unnamed_addr #0 {
  store i32 %1, ptr %5, align 4, !tbaa !28
  %7 = icmp slt i32 %1, 0
  br i1 %7, label %8, label %14

8:                                                ; preds = %6
  %9 = getelementptr inbounds nuw i8, ptr %0, i64 48
  %10 = load ptr, ptr %9, align 8, !tbaa !75
  %11 = getelementptr inbounds nuw i8, ptr %10, i64 72
  %12 = load ptr, ptr %11, align 8, !tbaa !40
  %13 = tail call i32 (ptr, i32, ptr, ...) %12(ptr noundef %10, i32 noundef 17, ptr noundef nonnull @.str.84, ptr noundef %3, ptr noundef nonnull %4, i32 noundef %1) #9
  br label %44

14:                                               ; preds = %6
  %15 = zext nneg i32 %1 to i64
  %16 = getelementptr inbounds nuw i8, ptr %0, i64 48
  %17 = load ptr, ptr %16, align 8, !tbaa !75
  %18 = getelementptr inbounds nuw i8, ptr %17, i64 152
  %19 = load i64, ptr %18, align 8, !tbaa !93
  %20 = icmp sgt i64 %19, 0
  %21 = getelementptr inbounds nuw i8, ptr %0, i64 16
  %22 = load i64, ptr %21, align 8, !tbaa !94
  %23 = icmp slt i64 %22, %15
  %or.cond19.i = select i1 %20, i1 %23, i1 false
  br i1 %or.cond19.i, label %24, label %._crit_edge.i

24:                                               ; preds = %14
  %25 = sub i64 %15, %22
  %26 = getelementptr inbounds nuw i8, ptr %0, i64 24
  %27 = load i64, ptr %26, align 8, !tbaa !70
  %28 = add nsw i64 %25, %27
  %.not.i = icmp sgt i64 %28, %19
  br i1 %.not.i, label %30, label %scratch_attr_too_big.exit

._crit_edge.i:                                    ; preds = %14
  %29 = icmp eq i32 %1, 2147483647
  %or.cond.i = and i1 %29, %23
  br i1 %or.cond.i, label %30, label %scratch_attr_too_big.exit

30:                                               ; preds = %24, %._crit_edge.i
  %31 = getelementptr inbounds nuw i8, ptr %17, i64 72
  %32 = load ptr, ptr %31, align 8, !tbaa !40
  %33 = tail call i32 (ptr, i32, ptr, ...) %32(ptr noundef nonnull %17, i32 noundef 17, ptr noundef nonnull @.str.85, ptr noundef %3, ptr noundef nonnull %4, i32 noundef %1) #9
  br label %44

scratch_attr_too_big.exit:                        ; preds = %._crit_edge.i, %24
  %34 = icmp samesign ugt i32 %2, 1
  br i1 %34, label %35, label %44

35:                                               ; preds = %scratch_attr_too_big.exit
  %36 = udiv i32 %1, %2
  %37 = urem i32 %1, %2
  %38 = mul nuw nsw i32 %36, %2
  %.not33 = icmp eq i32 %1, %38
  br i1 %.not33, label %43, label %39

39:                                               ; preds = %35
  %40 = getelementptr inbounds nuw i8, ptr %17, i64 72
  %41 = load ptr, ptr %40, align 8, !tbaa !40
  %42 = tail call i32 (ptr, i32, ptr, ...) %41(ptr noundef nonnull %17, i32 noundef 17, ptr noundef nonnull @.str.86, ptr noundef %3, i32 noundef %1, ptr noundef nonnull %4, i32 noundef %37) #9
  br label %44

43:                                               ; preds = %35
  store i32 %36, ptr %5, align 4, !tbaa !28
  br label %44

44:                                               ; preds = %scratch_attr_too_big.exit, %43, %39, %30, %8
  %.0 = phi i32 [ %13, %8 ], [ %33, %30 ], [ %42, %39 ], [ 0, %43 ], [ 0, %scratch_attr_too_big.exit ]
  ret i32 %.0
}